target datalayout = "e-m:e-p270:32:32-p271:32:32-p272:64:64-i64:64-i128:128-f80:128-n8:16:32:64-S128"
target triple = "x86_64-pc-linux-gnu"

%struct.forward = type { %struct.slurm_node_alias_addrs_t, i16, i16, ptr, i32, i16, i16 }
%struct.slurm_node_alias_addrs_t = type { i64, ptr, ptr, i32, ptr }
%struct.sockaddr_storage = type { i16, [118 x i8], i64 }
%struct.slurm_msg = type { %struct.sockaddr_storage, ptr, i32, i32, i32, i8, i32, i8, i32, ptr, ptr, i32, ptr, ptr, i16, i8, i16, i16, %struct.forward, ptr, %struct.sockaddr_storage, ptr }
%struct.job_state_response_msg_t = type { i32, ptr }
%struct.job_state_response_job_t = type { i32, i32, i32, ptr, i32, i32 }

; Function Attrs: nounwind uwtable
define internal void @_pack_job_state_response_msg(ptr noundef %0, ptr noundef %1) #0 {
  %3 = alloca ptr, align 8
  %4 = alloca ptr, align 8
  %5 = alloca ptr, align 8
  %6 = alloca i32, align 4
  %7 = alloca ptr, align 8
  %8 = alloca ptr, align 8
  %9 = alloca i32, align 4
  store ptr %0, ptr %3, align 8
  store ptr %1, ptr %4, align 8
  call void @llvm.lifetime.start.p0(i64 8, ptr %5) #6
  %10 = load ptr, ptr %3, align 8
  %11 = getelementptr inbounds nuw %struct.slurm_msg, ptr %10, i32 0, i32 13
  %12 = load ptr, ptr %11, align 8
  store ptr %12, ptr %5, align 8
  %13 = load ptr, ptr %3, align 8
  %14 = getelementptr inbounds nuw %struct.slurm_msg, ptr %13, i32 0, i32 17
  %15 = load i16, ptr %14, align 2
  %16 = zext i16 %15 to i32
  %17 = icmp sge i32 %16, 10240
  br i1 %17, label %18, label %97

18:                                               ; preds = %2
  %19 = load ptr, ptr %5, align 8
  %20 = getelementptr inbounds nuw %struct.job_state_response_msg_t, ptr %19, i32 0, i32 0
  %21 = load i32, ptr %20, align 8
  %22 = load ptr, ptr %4, align 8
  call void @pack32(i32 noundef %21, ptr noundef %22)
  call void @llvm.lifetime.start.p0(i64 4, ptr %6) #6
  store i32 0, ptr %6, align 4
  br label %23

23:                                               ; preds = %93, %18
  %24 = load i32, ptr %6, align 4
  %25 = load ptr, ptr %5, align 8
  %26 = getelementptr inbounds nuw %struct.job_state_response_msg_t, ptr %25, i32 0, i32 0
  %27 = load i32, ptr %26, align 8
  %28 = icmp ult i32 %24, %27
  br i1 %28, label %30, label %29

29:                                               ; preds = %23
  call void @llvm.lifetime.end.p0(i64 4, ptr %6) #6
  br label %96

30:                                               ; preds = %23
  call void @llvm.lifetime.start.p0(i64 8, ptr %7) #6
  %31 = load ptr, ptr %5, align 8
  %32 = getelementptr inbounds nuw %struct.job_state_response_msg_t, ptr %31, i32 0, i32 1
  %33 = load ptr, ptr %32, align 8
  %34 = load i32, ptr %6, align 4
  %35 = sext i32 %34 to i64
  %36 = getelementptr inbounds %struct.job_state_response_job_t, ptr %33, i64 %35
  store ptr %36, ptr %7, align 8
  %37 = load ptr, ptr %7, align 8
  %38 = getelementptr inbounds nuw %struct.job_state_response_job_t, ptr %37, i32 0, i32 0
  %39 = load i32, ptr %38, align 8
  %40 = load ptr, ptr %4, align 8
  call void @pack32(i32 noundef %39, ptr noundef %40)
  %41 = load ptr, ptr %7, align 8
  %42 = getelementptr inbounds nuw %struct.job_state_response_job_t, ptr %41, i32 0, i32 1
  %43 = load i32, ptr %42, align 4
  %44 = load ptr, ptr %4, align 8
  call void @pack32(i32 noundef %43, ptr noundef %44)
  %45 = load ptr, ptr %7, align 8
  %46 = getelementptr inbounds nuw %struct.job_state_response_job_t, ptr %45, i32 0, i32 1
  %47 = load i32, ptr %46, align 4
  %48 = icmp ne i32 %47, 0
  br i1 %48, label %49, label %83

49:                                               ; preds = %30
  %50 = load ptr, ptr %7, align 8
  %51 = getelementptr inbounds nuw %struct.job_state_response_job_t, ptr %50, i32 0, i32 2
  %52 = load i32, ptr %51, align 8
  %53 = load ptr, ptr %4, align 8
  call void @pack32(i32 noundef %52, ptr noundef %53)
  br label %54

54:                                               ; preds = %49
  %55 = load ptr, ptr %7, align 8
  %56 = getelementptr inbounds nuw %struct.job_state_response_job_t, ptr %55, i32 0, i32 3
  %57 = load ptr, ptr %56, align 8
  %58 = icmp ne ptr %57, null
  br i1 %58, label %59, label %78

59:                                               ; preds = %54
  call void @llvm.lifetime.start.p0(i64 8, ptr %8) #6
  call void @llvm.lifetime.start.p0(i64 4, ptr %9) #6
  %60 = load ptr, ptr %7, align 8
  %61 = getelementptr inbounds nuw %struct.job_state_response_job_t, ptr %60, i32 0, i32 3
  %62 = load ptr, ptr %61, align 8
  %63 = call ptr @bit_fmt_hexmask(ptr noundef %62)
  store ptr %63, ptr %8, align 8
  %64 = load ptr, ptr %7, align 8
  %65 = getelementptr inbounds nuw %struct.job_state_response_job_t, ptr %64, i32 0, i32 3
  %66 = load ptr, ptr %65, align 8
  %67 = call i64 @bit_size(ptr noundef %66)
  %68 = trunc i64 %67 to i32
  store i32 %68, ptr %9, align 4
  %69 = load i32, ptr %9, align 4
  %70 = load ptr, ptr %4, align 8
  call void @pack32(i32 noundef %69, ptr noundef %70)
  %71 = load ptr, ptr %8, align 8
  %72 = call i64 @strlen(ptr noundef %71) #7
  %73 = add i64 %72, 1
  %74 = trunc i64 %73 to i32
  store i32 %74, ptr %9, align 4
  %75 = load ptr, ptr %8, align 8
  %76 = load i32, ptr %9, align 4
  %77 = load ptr, ptr %4, align 8
  call void @packmem(ptr noundef %75, i32 noundef %76, ptr noundef %77)
  call void @slurm_xfree(ptr noundef %8)
  call void @llvm.lifetime.end.p0(i64 4, ptr %9) #6
  call void @llvm.lifetime.end.p0(i64 8, ptr %8) #6
  br label %80

78:                                               ; preds = %54
  %79 = load ptr, ptr %4, align 8
  call void @pack32(i32 noundef -2, ptr noundef %79)
  br label %80

80:                                               ; preds = %78, %59
  br label %81

81:                                               ; preds = %80
  br label %82

82:                                               ; preds = %81
  br label %88

83:                                               ; preds = %30
  %84 = load ptr, ptr %7, align 8
  %85 = getelementptr inbounds nuw %struct.job_state_response_job_t, ptr %84, i32 0, i32 4
  %86 = load i32, ptr %85, align 8
  %87 = load ptr, ptr %4, align 8
  call void @pack32(i32 noundef %86, ptr noundef %87)
  br label %88

88:                                               ; preds = %83, %82
  %89 = load ptr, ptr %7, align 8
  %90 = getelementptr inbounds nuw %struct.job_state_response_job_t, ptr %89, i32 0, i32 5
  %91 = load i32, ptr %90, align 4
  %92 = load ptr, ptr %4, align 8
  call void @pack32(i32 noundef %91, ptr noundef %92)
  call void @llvm.lifetime.end.p0(i64 8, ptr %7) #6
  br label %93

93:                                               ; preds = %88
  %94 = load i32, ptr %6, align 4
  %95 = add nsw i32 %94, 1
  store i32 %95, ptr %6, align 4
  br label %23, !llvm.loop !47

96:                                               ; preds = %29
  br label %97

97:                                               ; preds = %96, %2
  call void @llvm.lifetime.end.p0(i64 8, ptr %5) #6
  ret void
}