; Function Attrs: nounwind uwtable
define internal fastcc void @_pack_job_state_response_msg(ptr readonly captures(none) %.200.val, i16 %.214.val, ptr noundef %0) unnamed_addr #0 {
  %2 = alloca ptr, align 8
  %3 = icmp ugt i16 %.214.val, 10239
  br i1 %3, label %4, label %.loopexit

4:                                                ; preds = %1
  %5 = load i32, ptr %.200.val, align 8
  tail call void @pack32(i32 noundef %5, ptr noundef %0) #7
  %6 = load i32, ptr %.200.val, align 8
  %.not2 = icmp eq i32 %6, 0
  br i1 %.not2, label %.loopexit, label %.lr.ph

.lr.ph:                                           ; preds = %4
  %7 = getelementptr inbounds nuw i8, ptr %.200.val, i64 8
  br label %8

8:                                                ; preds = %.lr.ph, %33
  %indvars.iv = phi i64 [ 0, %.lr.ph ], [ %indvars.iv.next, %33 ]
  %9 = load ptr, ptr %7, align 8
  %10 = getelementptr inbounds nuw %struct.job_state_response_job_t, ptr %9, i64 %indvars.iv
  %11 = load i32, ptr %10, align 8
  call void @pack32(i32 noundef %11, ptr noundef %0) #7
  %12 = getelementptr inbounds nuw i8, ptr %10, i64 4
  %13 = load i32, ptr %12, align 4
  call void @pack32(i32 noundef %13, ptr noundef %0) #7
  %14 = load i32, ptr %12, align 4
  %.not = icmp eq i32 %14, 0
  br i1 %.not, label %30, label %15

15:                                               ; preds = %8
  %16 = getelementptr inbounds nuw i8, ptr %10, i64 8
  %17 = load i32, ptr %16, align 8
  call void @pack32(i32 noundef %17, ptr noundef %0) #7
  %18 = getelementptr inbounds nuw i8, ptr %10, i64 16
  %19 = load ptr, ptr %18, align 8
  %.not27 = icmp eq ptr %19, null
  br i1 %.not27, label %29, label %20

20:                                               ; preds = %15
  call void @llvm.lifetime.start.p0(i64 8, ptr nonnull %2) #7
  %21 = call ptr @bit_fmt_hexmask(ptr noundef nonnull %19) #7
  store ptr %21, ptr %2, align 8
  %22 = load ptr, ptr %18, align 8
  %23 = call i64 @bit_size(ptr noundef %22) #7
  %24 = trunc i64 %23 to i32
  call void @pack32(i32 noundef %24, ptr noundef %0) #7
  %25 = load ptr, ptr %2, align 8
  %26 = call i64 @strlen(ptr noundef nonnull dereferenceable(1) %25) #8
  %27 = trunc i64 %26 to i32
  %28 = add i32 %27, 1
  call void @packmem(ptr noundef nonnull %25, i32 noundef %28, ptr noundef %0) #7
  call void @slurm_xfree(ptr noundef nonnull %2) #7
  call void @llvm.lifetime.end.p0(i64 8, ptr nonnull %2) #7
  br label %33

29:                                               ; preds = %15
  call void @pack32(i32 noundef -2, ptr noundef %0) #7
  br label %33

30:                                               ; preds = %8
  %31 = getelementptr inbounds nuw i8, ptr %10, i64 24
  %32 = load i32, ptr %31, align 8
  call void @pack32(i32 noundef %32, ptr noundef %0) #7
  br label %33

33:                                               ; preds = %20, %29, %30
  %34 = getelementptr inbounds nuw i8, ptr %10, i64 28
  %35 = load i32, ptr %34, align 4
  call void @pack32(i32 noundef %35, ptr noundef %0) #7
  %indvars.iv.next = add nuw nsw i64 %indvars.iv, 1
  %36 = load i32, ptr %.200.val, align 8
  %37 = zext i32 %36 to i64
  %38 = icmp samesign ult i64 %indvars.iv.next, %37
  br i1 %38, label %8, label %.loopexit, !llvm.loop !47

.loopexit:                                        ; preds = %33, %4, %1
  ret void
}